; Function Attrs: nounwind uwtable
define void @Dau_EnumCombineTwo(ptr noundef captures(none) %0, i32 noundef %1, i32 noundef %2, ptr noundef %3, ptr noundef readonly captures(none) %4, i32 noundef %5, i32 noundef %6, i32 noundef %7) local_unnamed_addr #1 {
  %9 = load i8, ptr %4, align 1, !tbaa !3
  %.not12.i = icmp eq i8 %9, 0
  br i1 %.not12.i, label %Dau_EnumLift.exit, label %.lr.ph.i

.lr.ph.i:                                         ; preds = %8
  %10 = trunc i32 %5 to i8
  br label %11

11:                                               ; preds = %11, %.lr.ph.i
  %12 = phi i8 [ %9, %.lr.ph.i ], [ %18, %11 ]
  %.014.i = phi ptr [ @Dau_EnumLift.pBuffer, %.lr.ph.i ], [ %16, %11 ]
  %.0913.i = phi ptr [ %4, %.lr.ph.i ], [ %17, %11 ]
  %13 = add i8 %12, -97
  %or.cond.i = icmp ult i8 %13, 26
  %14 = select i1 %or.cond.i, i8 %10, i8 0
  %15 = add i8 %14, %12
  store i8 %15, ptr %.014.i, align 1, !tbaa !3
  %16 = getelementptr inbounds nuw i8, ptr %.014.i, i64 1
  %17 = getelementptr inbounds nuw i8, ptr %.0913.i, i64 1
  %18 = load i8, ptr %17, align 1, !tbaa !3
  %.not.i = icmp eq i8 %18, 0
  br i1 %.not.i, label %Dau_EnumLift.exit, label %11, !llvm.loop !6

Dau_EnumLift.exit:                                ; preds = %11, %8
  %.0.lcssa.i = phi ptr [ @Dau_EnumLift.pBuffer, %8 ], [ %16, %11 ]
  store i8 0, ptr %.0.lcssa.i, align 1, !tbaa !3
  %.not = icmp eq i32 %1, 0
  %19 = select i1 %.not, ptr @.str.2, ptr @.str.1
  %.not13 = icmp eq i32 %2, 0
  %20 = select i1 %.not13, i32 40, i32 91
  %.not14 = icmp eq i32 %6, 0
  %21 = select i1 %.not14, ptr @.str.2, ptr @.str.3
  %22 = load i8, ptr %3, align 1, !tbaa !3
  %23 = icmp eq i8 %22, 42
  %.idx = zext i1 %23 to i64
  %24 = getelementptr inbounds nuw i8, ptr %3, i64 %.idx
  %.not15 = icmp eq i32 %7, 0
  %25 = select i1 %.not15, ptr @.str.2, ptr @.str.3
  %26 = load i8, ptr @Dau_EnumLift.pBuffer, align 16, !tbaa !3
  %27 = icmp eq i8 %26, 42
  %28 = select i1 %27, ptr getelementptr inbounds nuw (i8, ptr @Dau_EnumLift.pBuffer, i64 1), ptr @Dau_EnumLift.pBuffer
  %29 = select i1 %.not13, i32 41, i32 93
  %30 = tail call i32 (ptr, ptr, ...) @sprintf(ptr noundef nonnull dereferenceable(1) @Dau_EnumCombineTwo.pBuffer, ptr noundef nonnull dereferenceable(1) @.str, ptr noundef nonnull %19, i32 noundef %20, ptr noundef nonnull %21, ptr noundef nonnull %24, ptr noundef nonnull %25, ptr noundef nonnull %28, i32 noundef %29) #12
  %31 = tail call i64 @strlen(ptr noundef nonnull dereferenceable(1) @Dau_EnumCombineTwo.pBuffer) #13
  %32 = add i64 %31, 1
  %33 = tail call noalias ptr @malloc(i64 noundef %32) #14
  %34 = tail call ptr @strcpy(ptr noundef nonnull dereferenceable(1) %33, ptr noundef nonnull dereferenceable(1) @Dau_EnumCombineTwo.pBuffer) #12
  %35 = getelementptr inbounds nuw i8, ptr %0, i64 4
  %36 = load i32, ptr %35, align 4, !tbaa !9
  %37 = load i32, ptr %0, align 8, !tbaa !13
  %38 = icmp eq i32 %36, %37
  br i1 %38, label %39, label %.Vec_PtrGrow.exit11_crit_edge.i

.Vec_PtrGrow.exit11_crit_edge.i:                  ; preds = %Dau_EnumLift.exit
  %.phi.trans.insert.i = getelementptr inbounds nuw i8, ptr %0, i64 8
  %.pre.i = load ptr, ptr %.phi.trans.insert.i, align 8, !tbaa !14
  br label %Vec_PtrPush.exit

39:                                               ; preds = %Dau_EnumLift.exit
  %40 = icmp slt i32 %36, 16
  br i1 %40, label %41, label %49

41:                                               ; preds = %39
  %42 = getelementptr inbounds nuw i8, ptr %0, i64 8
  %43 = load ptr, ptr %42, align 8, !tbaa !14
  %.not9.i.i = icmp eq ptr %43, null
  br i1 %.not9.i.i, label %46, label %44

44:                                               ; preds = %41
  %45 = tail call dereferenceable_or_null(128) ptr @realloc(ptr noundef nonnull %43, i64 noundef 128) #15
  br label %Vec_PtrGrow.exit.i

46:                                               ; preds = %41
  %47 = tail call noalias dereferenceable_or_null(128) ptr @malloc(i64 noundef 128) #14
  br label %Vec_PtrGrow.exit.i

Vec_PtrGrow.exit.i:                               ; preds = %46, %44
  %48 = phi ptr [ %45, %44 ], [ %47, %46 ]
  store ptr %48, ptr %42, align 8, !tbaa !14
  store i32 16, ptr %0, align 8, !tbaa !13
  br label %Vec_PtrPush.exit

49:                                               ; preds = %39
  %50 = shl nuw nsw i32 %36, 1
  %51 = getelementptr inbounds nuw i8, ptr %0, i64 8
  %52 = load ptr, ptr %51, align 8, !tbaa !14
  %.not9.i10.i = icmp eq ptr %52, null
  %53 = zext nneg i32 %50 to i64
  %54 = shl nuw nsw i64 %53, 3
  br i1 %.not9.i10.i, label %57, label %55

55:                                               ; preds = %49
  %56 = tail call ptr @realloc(ptr noundef nonnull %52, i64 noundef %54) #15
  br label %59

57:                                               ; preds = %49
  %58 = tail call noalias ptr @malloc(i64 noundef %54) #14
  br label %59

59:                                               ; preds = %57, %55
  %60 = phi ptr [ %56, %55 ], [ %58, %57 ]
  store ptr %60, ptr %51, align 8, !tbaa !14
  store i32 %50, ptr %0, align 8, !tbaa !13
  br label %Vec_PtrPush.exit

Vec_PtrPush.exit:                                 ; preds = %.Vec_PtrGrow.exit11_crit_edge.i, %Vec_PtrGrow.exit.i, %59
  %61 = phi ptr [ %.pre.i, %.Vec_PtrGrow.exit11_crit_edge.i ], [ %60, %59 ], [ %48, %Vec_PtrGrow.exit.i ]
  %62 = load i32, ptr %35, align 4, !tbaa !9
  %63 = add nsw i32 %62, 1
  store i32 %63, ptr %35, align 4, !tbaa !9
  %64 = sext i32 %62 to i64
  %65 = getelementptr inbounds ptr, ptr %61, i64 %64
  store ptr %33, ptr %65, align 8, !tbaa !15
  ret void
}